target datalayout = "e-m:e-p270:32:32-p271:32:32-p272:64:64-i64:64-i128:128-f80:128-n8:16:32:64-S128"
target triple = "x86_64-pc-linux-gnu"

%struct.avifCodecEncodeOutput = type { %struct.avifEncodeSampleArray }
%struct.avifEncodeSampleArray = type { ptr, i32, i32, i32 }
%struct.avifEncodeSample = type { %struct.avifRWData, i32 }
%struct.avifRWData = type { ptr, i64 }

; Function Attrs: nounwind uwtable
define hidden i32 @avifCodecEncodeOutputAddSample(ptr noundef %0, ptr noundef %1, i64 noundef %2, i32 noundef %3) #0 {
  %5 = alloca i32, align 4
  %6 = alloca ptr, align 8
  %7 = alloca ptr, align 8
  %8 = alloca i64, align 8
  %9 = alloca i32, align 4
  %10 = alloca ptr, align 8
  %11 = alloca i32, align 4
  store ptr %0, ptr %6, align 8
  store ptr %1, ptr %7, align 8
  store i64 %2, ptr %8, align 8
  store i32 %3, ptr %9, align 4
  %12 = load ptr, ptr %6, align 8
  %13 = getelementptr inbounds nuw %struct.avifCodecEncodeOutput, ptr %12, i32 0, i32 0
  %14 = call ptr @avifArrayPush(ptr noundef %13)
  store ptr %14, ptr %10, align 8
  br label %15

15:                                               ; preds = %4
  %16 = load ptr, ptr %10, align 8
  %17 = icmp ne ptr %16, null
  br i1 %17, label %19, label %18

18:                                               ; preds = %15
  store i32 26, ptr %5, align 4
  br label %36

19:                                               ; preds = %15
  br label %20

20:                                               ; preds = %19
  %21 = load ptr, ptr %10, align 8
  %22 = getelementptr inbounds nuw %struct.avifEncodeSample, ptr %21, i32 0, i32 0
  %23 = load ptr, ptr %7, align 8
  %24 = load i64, ptr %8, align 8
  %25 = call i32 @avifRWDataSet(ptr noundef %22, ptr noundef %23, i64 noundef %24)
  store i32 %25, ptr %11, align 4
  %26 = load i32, ptr %11, align 4
  %27 = icmp ne i32 %26, 0
  br i1 %27, label %28, label %32

28:                                               ; preds = %20
  %29 = load ptr, ptr %6, align 8
  %30 = getelementptr inbounds nuw %struct.avifCodecEncodeOutput, ptr %29, i32 0, i32 0
  call void @avifArrayPop(ptr noundef %30)
  %31 = load i32, ptr %11, align 4
  store i32 %31, ptr %5, align 4
  br label %36

32:                                               ; preds = %20
  %33 = load i32, ptr %9, align 4
  %34 = load ptr, ptr %10, align 8
  %35 = getelementptr inbounds nuw %struct.avifEncodeSample, ptr %34, i32 0, i32 1
  store i32 %33, ptr %35, align 8
  store i32 0, ptr %5, align 4
  br label %36

36:                                               ; preds = %32, %28, %18
  %37 = load i32, ptr %5, align 4
  ret i32 %37
}