; Function Attrs: nounwind uwtable
define hidden i32 @avifCodecEncodeOutputAddSample(ptr noundef %0, ptr noundef %1, i64 noundef %2, i32 noundef %3) local_unnamed_addr #1 {
  %5 = tail call ptr @avifArrayPush(ptr noundef %0) #13
  %.not = icmp eq ptr %5, null
  br i1 %.not, label %11, label %6

6:                                                ; preds = %4
  %7 = tail call i32 @avifRWDataSet(ptr noundef nonnull %5, ptr noundef %1, i64 noundef %2) #13
  %.not12 = icmp eq i32 %7, 0
  br i1 %.not12, label %9, label %8

8:                                                ; preds = %6
  tail call void @avifArrayPop(ptr noundef %0) #13
  br label %11

9:                                                ; preds = %6
  %10 = getelementptr inbounds nuw i8, ptr %5, i64 16
  store i32 %3, ptr %10, align 8
  br label %11

11:                                               ; preds = %4, %9, %8
  %.0 = phi i32 [ %7, %8 ], [ 0, %9 ], [ 26, %4 ]
  ret i32 %.0
}